target datalayout = "e-m:e-p270:32:32-p271:32:32-p272:64:64-i64:64-i128:128-f80:128-n8:16:32:64-S128"
target triple = "x86_64-pc-linux-gnu"

%struct._spdu_flexray_mapping = type { i32, i32, i32, i32 }
%struct.flexray_info = type { i16, i8, i8, i16 }

@data_spdu_flexray_mappings = internal global ptr null, align 8
@.str.311 = private unnamed_addr constant [29 x i8] c"%s:%u: failed assertion \22%s\22\00", align 1
@.str.312 = private unnamed_addr constant [36 x i8] c"epan/dissectors/packet-signal-pdu.c\00", align 1
@.str.329 = private unnamed_addr constant [13 x i8] c"flexray_data\00", align 1

; Function Attrs: null_pointer_is_valid sspstrong uwtable
define internal i32 @dissect_spdu_message_flexray(ptr noundef %0, ptr noundef %1, ptr noundef %2, ptr noundef %3) #0 {
  %5 = alloca i32, align 4
  %6 = alloca ptr, align 8
  %7 = alloca ptr, align 8
  %8 = alloca ptr, align 8
  %9 = alloca ptr, align 8
  %10 = alloca ptr, align 8
  %11 = alloca i32, align 4
  %12 = alloca i64, align 8
  %13 = alloca ptr, align 8
  store ptr %0, ptr %6, align 8
  store ptr %1, ptr %7, align 8
  store ptr %2, ptr %8, align 8
  store ptr %3, ptr %9, align 8
  call void @llvm.lifetime.start.p0(i64 8, ptr %10) #14
  %14 = load ptr, ptr %9, align 8
  store ptr %14, ptr %10, align 8
  %15 = load ptr, ptr %10, align 8
  %16 = icmp ne ptr %15, null
  br i1 %16, label %17, label %18

17:                                               ; preds = %4
  br label %20

18:                                               ; preds = %4
  call void (ptr, ...) @proto_report_dissector_bug(ptr noundef @.str.311, ptr noundef @.str.312, i32 noundef 2494, ptr noundef @.str.329) #18
  unreachable

19:                                               ; No predecessors!
  br label %20

20:                                               ; preds = %19, %17
  %21 = load ptr, ptr @data_spdu_flexray_mappings, align 8
  %22 = icmp eq ptr %21, null
  br i1 %22, label %23, label %24

23:                                               ; preds = %20
  store i32 0, ptr %5, align 4
  store i32 1, ptr %11, align 4
  br label %55

24:                                               ; preds = %20
  call void @llvm.lifetime.start.p0(i64 8, ptr %12) #14
  %25 = load ptr, ptr %10, align 8
  %26 = getelementptr inbounds nuw %struct.flexray_info, ptr %25, i32 0, i32 2
  %27 = load i8, ptr %26, align 1
  %28 = zext i8 %27 to i64
  %29 = shl i64 %28, 24
  %30 = load ptr, ptr %10, align 8
  %31 = getelementptr inbounds nuw %struct.flexray_info, ptr %30, i32 0, i32 1
  %32 = load i8, ptr %31, align 2
  %33 = zext i8 %32 to i64
  %34 = shl i64 %33, 16
  %35 = or i64 %29, %34
  %36 = load ptr, ptr %10, align 8
  %37 = getelementptr inbounds nuw %struct.flexray_info, ptr %36, i32 0, i32 0
  %38 = load i16, ptr %37, align 2
  %39 = zext i16 %38 to i64
  %40 = or i64 %35, %39
  store i64 %40, ptr %12, align 8
  call void @llvm.lifetime.start.p0(i64 8, ptr %13) #14
  %41 = load ptr, ptr @data_spdu_flexray_mappings, align 8
  %42 = call ptr @g_hash_table_lookup(ptr noundef %41, ptr noundef %12)
  store ptr %42, ptr %13, align 8
  %43 = load ptr, ptr %13, align 8
  %44 = icmp eq ptr %43, null
  br i1 %44, label %45, label %46

45:                                               ; preds = %24
  store i32 0, ptr %5, align 4
  store i32 1, ptr %11, align 4
  br label %54

46:                                               ; preds = %24
  %47 = load ptr, ptr %6, align 8
  %48 = load ptr, ptr %7, align 8
  %49 = load ptr, ptr %8, align 8
  %50 = load ptr, ptr %13, align 8
  %51 = getelementptr inbounds nuw %struct._spdu_flexray_mapping, ptr %50, i32 0, i32 3
  %52 = load i32, ptr %51, align 4
  %53 = call i32 @dissect_spdu_payload(ptr noundef %47, ptr noundef %48, ptr noundef %49, i32 noundef %52, i1 noundef zeroext true)
  store i32 %53, ptr %5, align 4
  store i32 1, ptr %11, align 4
  br label %54

54:                                               ; preds = %46, %45
  call void @llvm.lifetime.end.p0(i64 8, ptr %13) #14
  call void @llvm.lifetime.end.p0(i64 8, ptr %12) #14
  br label %55

55:                                               ; preds = %54, %23
  call void @llvm.lifetime.end.p0(i64 8, ptr %10) #14
  %56 = load i32, ptr %5, align 4
  ret i32 %56
}

; Function Attrs: null_pointer_is_valid sspstrong uwtable
define internal zeroext i1 @dissect_spdu_message_flexray_heur(ptr noundef %0, ptr noundef %1, ptr noundef %2, ptr noundef %3) #0 {
  %5 = alloca ptr, align 8
  %6 = alloca ptr, align 8
  %7 = alloca ptr, align 8
  %8 = alloca ptr, align 8
  store ptr %0, ptr %5, align 8
  store ptr %1, ptr %6, align 8
  store ptr %2, ptr %7, align 8
  store ptr %3, ptr %8, align 8
  %9 = load ptr, ptr %5, align 8
  %10 = load ptr, ptr %6, align 8
  %11 = load ptr, ptr %7, align 8
  %12 = load ptr, ptr %8, align 8
  %13 = call i32 @dissect_spdu_message_flexray(ptr noundef %9, ptr noundef %10, ptr noundef %11, ptr noundef %12)
  %14 = icmp ne i32 %13, 0
  ret i1 %14
}