; Function Attrs: null_pointer_is_valid sspstrong uwtable
define internal zeroext i1 @dissect_spdu_message_flexray_heur(ptr noundef %0, ptr noundef %1, ptr noundef %2, ptr noundef readonly captures(address_is_null) %3) #0 {
  %5 = alloca i64, align 8
  %.not.i = icmp eq ptr %3, null
  br i1 %.not.i, label %6, label %7

6:                                                ; preds = %4
  tail call void (ptr, ...) @proto_report_dissector_bug(ptr noundef nonnull @.str.311, ptr noundef nonnull @.str.312, i32 noundef 2494, ptr noundef nonnull @.str.329) #20
  unreachable

7:                                                ; preds = %4
  %8 = load ptr, ptr @data_spdu_flexray_mappings, align 8
  %9 = icmp eq ptr %8, null
  br i1 %9, label %dissect_spdu_message_flexray.exit, label %10

10:                                               ; preds = %7
  call void @llvm.lifetime.start.p0(i64 8, ptr nonnull %5) #16
  %11 = load i32, ptr %3, align 2
  %12 = zext i32 %11 to i64
  store i64 %12, ptr %5, align 8
  %13 = call ptr @g_hash_table_lookup(ptr noundef nonnull %8, ptr noundef nonnull %5)
  %14 = icmp eq ptr %13, null
  br i1 %14, label %20, label %15

15:                                               ; preds = %10
  %16 = getelementptr inbounds nuw i8, ptr %13, i64 12
  %17 = load i32, ptr %16, align 4
  %18 = call fastcc i32 @dissect_spdu_payload(ptr noundef %0, ptr noundef %1, ptr noundef %2, i32 noundef %17, i1 noundef zeroext true)
  %19 = icmp ne i32 %18, 0
  br label %20

20:                                               ; preds = %15, %10
  %.1.i = phi i1 [ %19, %15 ], [ false, %10 ]
  call void @llvm.lifetime.end.p0(i64 8, ptr nonnull %5) #16
  br label %dissect_spdu_message_flexray.exit

dissect_spdu_message_flexray.exit:                ; preds = %7, %20
  %.0.i = phi i1 [ %.1.i, %20 ], [ false, %7 ]
  ret i1 %.0.i
}